target datalayout = "e-m:e-p270:32:32-p271:32:32-p272:64:64-i64:64-i128:128-f80:128-n8:16:32:64-S128"
target triple = "x86_64-pc-linux-gnu"

@.str = private unnamed_addr constant [106 x i8] c"generated/home/dtcxzyw/WorkSpace/Projects/compilers/llvm-opt-benchmark/bench/hdf5/hdf5/src/H5VLcallback.c\00", align 1
@H5E_ARGS_g = external global i64, align 8
@H5E_BADTYPE_g = external global i64, align 8
@.str.1 = private unnamed_addr constant [23 x i8] c"not a VOL connector ID\00", align 1
@H5E_VOL_g = external global i64, align 8
@H5E_CANTRELEASE_g = external global i64, align 8
@__func__.H5VLfree_connector_info = private unnamed_addr constant [24 x i8] c"H5VLfree_connector_info\00", align 1
@.str.14 = private unnamed_addr constant [44 x i8] c"unable to release VOL connector info object\00", align 1

; Function Attrs: nounwind uwtable
define i32 @H5VLfree_connector_info(i64 noundef %0, ptr noundef %1) #0 {
  %3 = alloca i64, align 8
  %4 = alloca ptr, align 8
  %5 = alloca ptr, align 8
  %6 = alloca i32, align 4
  %7 = alloca i8, align 1
  store i64 %0, ptr %3, align 8, !tbaa !3
  store ptr %1, ptr %4, align 8, !tbaa !42
  call void @llvm.lifetime.start.p0(i64 8, ptr %5) #8
  call void @llvm.lifetime.start.p0(i64 4, ptr %6) #8
  store i32 0, ptr %6, align 4, !tbaa !7
  call void @llvm.lifetime.start.p0(i64 1, ptr %7) #8
  store i8 0, ptr %7, align 1, !tbaa !9
  %8 = load i64, ptr %3, align 8, !tbaa !3
  %9 = call ptr @H5I_object_verify(i64 noundef %8, i32 noundef 9)
  store ptr %9, ptr %5, align 8, !tbaa !11
  %10 = icmp eq ptr null, %9
  br i1 %10, label %11, label %30

11:                                               ; preds = %2
  br label %12

12:                                               ; preds = %11
  br label %13

13:                                               ; preds = %12
  br label %14

14:                                               ; preds = %13
  %15 = load i64, ptr @H5E_ARGS_g, align 8, !tbaa !3
  %16 = load i64, ptr @H5E_BADTYPE_g, align 8, !tbaa !3
  %17 = call i32 (ptr, ptr, i32, i64, i64, ptr, ...) @H5E_printf_stack(ptr noundef @.str, ptr noundef @__func__.H5VLfree_connector_info, i32 noundef 632, i64 noundef %15, i64 noundef %16, ptr noundef @.str.1)
  br label %18

18:                                               ; preds = %14
  br label %19

19:                                               ; preds = %18
  store i8 1, ptr %7, align 1, !tbaa !9
  %20 = load i8, ptr %7, align 1, !tbaa !9, !range !14, !noundef !15
  %21 = trunc i8 %20 to i1
  %22 = zext i1 %21 to i8
  store i8 %22, ptr %7, align 1, !tbaa !9
  br label %23

23:                                               ; preds = %19
  br label %24

24:                                               ; preds = %23
  br label %25

25:                                               ; preds = %24
  store i32 -1, ptr %6, align 4, !tbaa !7
  br label %55

26:                                               ; No predecessors!
  br label %27

27:                                               ; preds = %26
  br label %28

28:                                               ; preds = %27
  br label %29

29:                                               ; preds = %28
  br label %30

30:                                               ; preds = %29, %2
  %31 = load ptr, ptr %5, align 8, !tbaa !11
  %32 = load ptr, ptr %4, align 8, !tbaa !42
  %33 = call i32 @H5VL_free_connector_info(ptr noundef %31, ptr noundef %32)
  %34 = icmp slt i32 %33, 0
  br i1 %34, label %35, label %54

35:                                               ; preds = %30
  br label %36

36:                                               ; preds = %35
  br label %37

37:                                               ; preds = %36
  br label %38

38:                                               ; preds = %37
  %39 = load i64, ptr @H5E_VOL_g, align 8, !tbaa !3
  %40 = load i64, ptr @H5E_CANTRELEASE_g, align 8, !tbaa !3
  %41 = call i32 (ptr, ptr, i32, i64, i64, ptr, ...) @H5E_printf_stack(ptr noundef @.str, ptr noundef @__func__.H5VLfree_connector_info, i32 noundef 636, i64 noundef %39, i64 noundef %40, ptr noundef @.str.14)
  br label %42

42:                                               ; preds = %38
  br label %43

43:                                               ; preds = %42
  store i8 1, ptr %7, align 1, !tbaa !9
  %44 = load i8, ptr %7, align 1, !tbaa !9, !range !14, !noundef !15
  %45 = trunc i8 %44 to i1
  %46 = zext i1 %45 to i8
  store i8 %46, ptr %7, align 1, !tbaa !9
  br label %47

47:                                               ; preds = %43
  br label %48

48:                                               ; preds = %47
  br label %49

49:                                               ; preds = %48
  store i32 -1, ptr %6, align 4, !tbaa !7
  br label %55

50:                                               ; No predecessors!
  br label %51

51:                                               ; preds = %50
  br label %52

52:                                               ; preds = %51
  br label %53

53:                                               ; preds = %52
  br label %54

54:                                               ; preds = %53, %30
  br label %55

55:                                               ; preds = %54, %49, %25
  %56 = load i8, ptr %7, align 1, !tbaa !9, !range !14, !noundef !15
  %57 = trunc i8 %56 to i1
  %58 = xor i1 %57, true
  %59 = xor i1 %58, true
  %60 = zext i1 %59 to i32
  %61 = sext i32 %60 to i64
  %62 = call i64 @llvm.expect.i64(i64 %61, i64 0)
  %63 = icmp ne i64 %62, 0
  br i1 %63, label %64, label %66

64:                                               ; preds = %55
  %65 = call i32 @H5E_dump_api_stack()
  br label %66

66:                                               ; preds = %64, %55
  %67 = load i32, ptr %6, align 4, !tbaa !7
  call void @llvm.lifetime.end.p0(i64 1, ptr %7) #8
  call void @llvm.lifetime.end.p0(i64 4, ptr %6) #8
  call void @llvm.lifetime.end.p0(i64 8, ptr %5) #8
  ret i32 %67
}