; Function Attrs: nounwind uwtable
define range(i32 -1, 1) i32 @H5VLfree_connector_info(i64 noundef %0, ptr noundef %1) local_unnamed_addr #0 {
  %3 = tail call ptr @H5I_object_verify(i64 noundef %0, i32 noundef 9) #7
  %4 = icmp eq ptr %3, null
  br i1 %4, label %5, label %9, !prof !41

5:                                                ; preds = %2
  %6 = load i64, ptr @H5E_ARGS_g, align 8, !tbaa !3
  %7 = load i64, ptr @H5E_BADTYPE_g, align 8, !tbaa !3
  %8 = tail call i32 (ptr, ptr, i32, i64, i64, ptr, ...) @H5E_printf_stack(ptr noundef nonnull @.str, ptr noundef nonnull @__func__.H5VLfree_connector_info, i32 noundef 632, i64 noundef %6, i64 noundef %7, ptr noundef nonnull @.str.1) #7
  br label %16

9:                                                ; preds = %2
  %10 = tail call i32 @H5VL_free_connector_info(ptr noundef nonnull %3, ptr noundef %1)
  %11 = icmp slt i32 %10, 0
  br i1 %11, label %12, label %18, !prof !41

12:                                               ; preds = %9
  %13 = load i64, ptr @H5E_VOL_g, align 8, !tbaa !3
  %14 = load i64, ptr @H5E_CANTRELEASE_g, align 8, !tbaa !3
  %15 = tail call i32 (ptr, ptr, i32, i64, i64, ptr, ...) @H5E_printf_stack(ptr noundef nonnull @.str, ptr noundef nonnull @__func__.H5VLfree_connector_info, i32 noundef 636, i64 noundef %13, i64 noundef %14, ptr noundef nonnull @.str.14) #7
  br label %16

16:                                               ; preds = %5, %12
  %17 = tail call i32 @H5E_dump_api_stack() #7
  br label %18

18:                                               ; preds = %9, %16
  %.0610 = phi i32 [ -1, %16 ], [ 0, %9 ]
  ret i32 %.0610
}